target datalayout = "e-m:e-p270:32:32-p271:32:32-p272:64:64-i64:64-i128:128-f80:128-n8:16:32:64-S128"
target triple = "x86_64-pc-linux-gnu"

%struct._descriptorspec_item = type { i32, i32, i32, i32, i32 }

@.str.42 = private unnamed_addr constant [40 x i8] c"Could not open PTY (pseudoterminal): %s\00", align 1

; Function Attrs: nounwind uwtable
define internal i32 @set_proc_descriptor_to_pty(ptr noundef %0, ptr noundef %1, ptr noundef %2) #0 {
  %4 = alloca i32, align 4
  %5 = alloca ptr, align 8
  %6 = alloca ptr, align 8
  %7 = alloca ptr, align 8
  store ptr %0, ptr %5, align 8, !tbaa !82
  store ptr %1, ptr %6, align 8, !tbaa !79
  store ptr %2, ptr %7, align 8, !tbaa !79
  %8 = load ptr, ptr %6, align 8, !tbaa !79
  %9 = load i32, ptr %8, align 4, !tbaa !4
  %10 = icmp eq i32 %9, -1
  br i1 %10, label %11, label %21

11:                                               ; preds = %3
  %12 = load ptr, ptr %6, align 8, !tbaa !79
  %13 = load ptr, ptr %7, align 8, !tbaa !79
  %14 = call i32 @openpty(ptr noundef %12, ptr noundef %13, ptr noundef null, ptr noundef null, ptr noundef null) #14
  %15 = icmp ne i32 %14, 0
  br i1 %15, label %16, label %20

16:                                               ; preds = %11
  %17 = call ptr @__errno_location() #15
  %18 = load i32, ptr %17, align 4, !tbaa !4
  %19 = call ptr @strerror(i32 noundef %18) #14
  call void (ptr, i32, ptr, ...) @php_error_docref(ptr noundef null, i32 noundef 2, ptr noundef @.str.42, ptr noundef %19)
  store i32 -1, ptr %4, align 4
  br label %36

20:                                               ; preds = %11
  br label %21

21:                                               ; preds = %20, %3
  %22 = load ptr, ptr %5, align 8, !tbaa !82
  %23 = getelementptr inbounds nuw %struct._descriptorspec_item, ptr %22, i32 0, i32 1
  store i32 1, ptr %23, align 4, !tbaa !98
  %24 = load ptr, ptr %7, align 8, !tbaa !79
  %25 = load i32, ptr %24, align 4, !tbaa !4
  %26 = call i32 @dup(i32 noundef %25) #14
  %27 = load ptr, ptr %5, align 8, !tbaa !82
  %28 = getelementptr inbounds nuw %struct._descriptorspec_item, ptr %27, i32 0, i32 2
  store i32 %26, ptr %28, align 4, !tbaa !97
  %29 = load ptr, ptr %6, align 8, !tbaa !79
  %30 = load i32, ptr %29, align 4, !tbaa !4
  %31 = call i32 @dup(i32 noundef %30) #14
  %32 = load ptr, ptr %5, align 8, !tbaa !82
  %33 = getelementptr inbounds nuw %struct._descriptorspec_item, ptr %32, i32 0, i32 3
  store i32 %31, ptr %33, align 4, !tbaa !100
  %34 = load ptr, ptr %5, align 8, !tbaa !82
  %35 = getelementptr inbounds nuw %struct._descriptorspec_item, ptr %34, i32 0, i32 4
  store i32 2, ptr %35, align 4, !tbaa !99
  store i32 0, ptr %4, align 4
  br label %36

36:                                               ; preds = %21, %16
  %37 = load i32, ptr %4, align 4
  ret i32 %37
}