; Function Attrs: nounwind uwtable
define internal fastcc range(i32 -1, 1) i32 @set_proc_descriptor_to_pty(ptr noundef writeonly captures(none) %0, ptr noundef nonnull %1, ptr noundef nonnull %2) unnamed_addr #0 {
  %4 = load i32, ptr %1, align 4, !tbaa !4
  %5 = icmp eq i32 %4, -1
  br i1 %5, label %6, label %12

6:                                                ; preds = %3
  %7 = tail call i32 @openpty(ptr noundef nonnull %1, ptr noundef nonnull %2, ptr noundef null, ptr noundef null, ptr noundef null) #13
  %.not = icmp eq i32 %7, 0
  br i1 %.not, label %12, label %8

8:                                                ; preds = %6
  %9 = tail call ptr @__errno_location() #14
  %10 = load i32, ptr %9, align 4, !tbaa !4
  %11 = tail call ptr @strerror(i32 noundef %10) #13
  tail call void (ptr, i32, ptr, ...) @php_error_docref(ptr noundef null, i32 noundef 2, ptr noundef nonnull @.str.42, ptr noundef %11) #13
  br label %21

12:                                               ; preds = %6, %3
  %13 = getelementptr inbounds nuw i8, ptr %0, i64 4
  store i32 1, ptr %13, align 4, !tbaa !90
  %14 = load i32, ptr %2, align 4, !tbaa !4
  %15 = tail call i32 @dup(i32 noundef %14) #13
  %16 = getelementptr inbounds nuw i8, ptr %0, i64 8
  store i32 %15, ptr %16, align 4, !tbaa !91
  %17 = load i32, ptr %1, align 4, !tbaa !4
  %18 = tail call i32 @dup(i32 noundef %17) #13
  %19 = getelementptr inbounds nuw i8, ptr %0, i64 12
  store i32 %18, ptr %19, align 4, !tbaa !93
  %20 = getelementptr inbounds nuw i8, ptr %0, i64 16
  store i32 2, ptr %20, align 4, !tbaa !92
  br label %21

21:                                               ; preds = %12, %8
  %.0 = phi i32 [ -1, %8 ], [ 0, %12 ]
  ret i32 %.0
}